target datalayout = "e-m:e-p270:32:32-p271:32:32-p272:64:64-i64:64-i128:128-f80:128-n8:16:32:64-S128"
target triple = "x86_64-pc-linux-gnu"

%struct.Vec_Int_t_ = type { i32, i32, ptr }

; Function Attrs: nounwind uwtable
define internal ptr @Vec_IntEntryP(ptr noundef %0, i32 noundef %1) #0 {
  %3 = alloca ptr, align 8
  %4 = alloca i32, align 4
  store ptr %0, ptr %3, align 8
  store i32 %1, ptr %4, align 4
  %5 = load ptr, ptr %3, align 8
  %6 = getelementptr inbounds %struct.Vec_Int_t_, ptr %5, i32 0, i32 2
  %7 = load ptr, ptr %6, align 8
  %8 = load i32, ptr %4, align 4
  %9 = sext i32 %8 to i64
  %10 = getelementptr inbounds i32, ptr %7, i64 %9
  ret ptr %10
}

; Function Attrs: nounwind uwtable
define internal i32 @Abc_Var2Lit(i32 noundef %0, i32 noundef %1) #0 {
  %3 = alloca i32, align 4
  %4 = alloca i32, align 4
  store i32 %0, ptr %3, align 4
  store i32 %1, ptr %4, align 4
  %5 = load i32, ptr %3, align 4
  %6 = load i32, ptr %3, align 4
  %7 = add nsw i32 %5, %6
  %8 = load i32, ptr %4, align 4
  %9 = add nsw i32 %7, %8
  ret i32 %9
}

; Function Attrs: nounwind uwtable
define void @Acec_TreeAddInOutPoint(ptr noundef %0, i32 noundef %1, i32 noundef %2, i32 noundef %3) #0 {
  %5 = alloca ptr, align 8
  %6 = alloca i32, align 4
  %7 = alloca i32, align 4
  %8 = alloca i32, align 4
  %9 = alloca ptr, align 8
  store ptr %0, ptr %5, align 8
  store i32 %1, ptr %6, align 4
  store i32 %2, ptr %7, align 4
  store i32 %3, ptr %8, align 4
  %10 = load ptr, ptr %5, align 8
  %11 = load i32, ptr %6, align 4
  %12 = load i32, ptr %8, align 4
  %13 = call i32 @Abc_Var2Lit(i32 noundef %11, i32 noundef %12)
  %14 = call ptr @Vec_IntEntryP(ptr noundef %10, i32 noundef %13)
  store ptr %14, ptr %9, align 8
  %15 = load ptr, ptr %9, align 8
  %16 = load i32, ptr %15, align 4
  %17 = icmp eq i32 %16, -1
  br i1 %17, label %18, label %21

18:                                               ; preds = %4
  %19 = load i32, ptr %7, align 4
  %20 = load ptr, ptr %9, align 8
  store i32 %19, ptr %20, align 4
  br label %28

21:                                               ; preds = %4
  %22 = load ptr, ptr %9, align 8
  %23 = load i32, ptr %22, align 4
  %24 = icmp sge i32 %23, 0
  br i1 %24, label %25, label %27

25:                                               ; preds = %21
  %26 = load ptr, ptr %9, align 8
  store i32 -2, ptr %26, align 4
  br label %27

27:                                               ; preds = %25, %21
  br label %28

28:                                               ; preds = %27, %18
  ret void
}