; Function Attrs: mustprogress nofree norecurse nosync nounwind willreturn memory(readwrite, inaccessiblemem: none) uwtable
define void @Acec_TreeAddInOutPoint(ptr noundef readonly captures(none) %0, i32 noundef %1, i32 noundef %2, i32 noundef %3) local_unnamed_addr #6 {
  %5 = shl nsw i32 %1, 1
  %6 = add nsw i32 %3, %5
  %7 = getelementptr i8, ptr %0, i64 8
  %.val = load ptr, ptr %7, align 8
  %8 = sext i32 %6 to i64
  %9 = getelementptr inbounds i32, ptr %.val, i64 %8
  %10 = load i32, ptr %9, align 4
  %11 = icmp eq i32 %10, -1
  br i1 %11, label %.sink.split, label %12

12:                                               ; preds = %4
  %13 = icmp sgt i32 %10, -1
  br i1 %13, label %.sink.split, label %14

.sink.split:                                      ; preds = %12, %4
  %.sink = phi i32 [ %2, %4 ], [ -2, %12 ]
  store i32 %.sink, ptr %9, align 4
  br label %14

14:                                               ; preds = %.sink.split, %12
  ret void
}